target datalayout = "e-m:e-p270:32:32-p271:32:32-p272:64:64-i64:64-i128:128-f80:128-n8:16:32:64-S128"
target triple = "x86_64-pc-linux-gnu"

%"class.clang::QualType" = type { %"class.llvm::PointerIntPair" }
%"class.llvm::PointerIntPair" = type { %"struct.llvm::detail::PunnedPointer" }
%"struct.llvm::detail::PunnedPointer" = type { [8 x i8] }
%"class.llvm::PointerIntPair.48" = type { %"struct.llvm::detail::PunnedPointer.49" }
%"struct.llvm::detail::PunnedPointer.49" = type { [8 x i8] }
%"class.clang::CharUnits" = type { i64 }
%"class.clang::CodeGen::Address" = type { %"class.llvm::PointerIntPair.48", ptr, %"class.clang::CharUnits", %"class.clang::CodeGen::CGPointerAuthInfo", ptr }
%"class.clang::CodeGen::CGPointerAuthInfo" = type { i8, ptr }
%"class.clang::Expr" = type { %"class.clang::ValueStmt", %"class.clang::QualType" }
%"class.clang::ValueStmt" = type { %"class.clang::Stmt" }
%"class.clang::Stmt" = type { %union.anon.198 }
%union.anon.198 = type { %"class.clang::Stmt::PseudoObjectExprBitfields" }
%"class.clang::Stmt::PseudoObjectExprBitfields" = type { i64 }
%"class.(anonymous namespace)::ScalarExprEmitter" = type { ptr, ptr, i8, ptr }
%"class.clang::CodeGen::LValue" = type { i32, %union.anon.203, %union.anon.204, %"class.clang::QualType", %"class.clang::Qualifiers", i8, %"class.clang::CodeGen::LValueBaseInfo", %"struct.clang::CodeGen::TBAAAccessInfo", ptr }
%union.anon.203 = type { %"class.clang::CodeGen::Address" }
%union.anon.204 = type { ptr }
%"class.clang::Qualifiers" = type { i64 }
%"class.clang::CodeGen::LValueBaseInfo" = type { i32 }
%"struct.clang::CodeGen::TBAAAccessInfo" = type { i32, ptr, ptr, i64, i64 }
%"class.clang::UnaryOperator" = type { %"class.clang::Expr", ptr }

; Function Attrs: mustprogress nounwind uwtable
define linkonce_odr hidden noundef ptr @_ZN4llvm16cast_convert_valIN5clang4ExprEPNS1_4StmtES4_E4doitEPKS3_(ptr noundef %0) #0 comdat align 2 {
  %2 = alloca ptr, align 8
  store ptr %0, ptr %2, align 8
  %3 = load ptr, ptr %2, align 8
  ret ptr %3
}

; Function Attrs: mustprogress nounwind uwtable
define linkonce_odr hidden noundef ptr @_ZN4llvm8CastInfoIN5clang4ExprEPNS1_4StmtEvE6doCastERKS4_(ptr noundef nonnull align 8 dereferenceable(8) %0) #0 comdat align 2 {
  %2 = alloca ptr, align 8
  store ptr %0, ptr %2, align 8
  %3 = load ptr, ptr %2, align 8
  %4 = load ptr, ptr %3, align 8
  %5 = call noundef ptr @_ZN4llvm16cast_convert_valIN5clang4ExprEPNS1_4StmtES4_E4doitEPKS3_(ptr noundef %4)
  ret ptr %5
}

; Function Attrs: mustprogress nounwind uwtable
define linkonce_odr hidden noundef ptr @_ZN4llvm4castIN5clang4ExprENS1_4StmtEEEDcPT0_(ptr noundef %0) #0 comdat {
  %2 = alloca ptr, align 8
  store ptr %0, ptr %2, align 8
  %3 = call noundef ptr @_ZN4llvm8CastInfoIN5clang4ExprEPNS1_4StmtEvE6doCastERKS4_(ptr noundef nonnull align 8 dereferenceable(8) %2)
  ret ptr %3
}

; Function Attrs: mustprogress nounwind uwtable
define internal void @_ZN12_GLOBAL__N_117ScalarExprEmitter10EmitLValueEPKN5clang4ExprE(ptr dead_on_unwind noalias writable sret(%"class.clang::CodeGen::LValue") align 8 %0, ptr noundef nonnull align 8 dereferenceable(32) %1, ptr noundef %2) #0 align 2 {
  %4 = alloca ptr, align 8
  %5 = alloca ptr, align 8
  store ptr %1, ptr %4, align 8
  store ptr %2, ptr %5, align 8
  %6 = load ptr, ptr %4, align 8
  %7 = getelementptr inbounds nuw %"class.(anonymous namespace)::ScalarExprEmitter", ptr %6, i32 0, i32 0
  %8 = load ptr, ptr %7, align 8
  %9 = load ptr, ptr %5, align 8
  call void @_ZN5clang7CodeGen15CodeGenFunction10EmitLValueEPKNS_4ExprENS0_14KnownNonNull_tE(ptr dead_on_unwind writable sret(%"class.clang::CodeGen::LValue") align 8 %0, ptr noundef nonnull align 8 dereferenceable(6488) %8, ptr noundef %9, i32 noundef 0)
  ret void
}

; Function Attrs: mustprogress nounwind uwtable
define linkonce_odr hidden noundef ptr @_ZNK5clang13UnaryOperator10getSubExprEv(ptr noundef nonnull align 8 dereferenceable(24) %0) #0 comdat align 2 {
  %2 = alloca ptr, align 8
  store ptr %0, ptr %2, align 8
  %3 = load ptr, ptr %2, align 8
  %4 = getelementptr inbounds nuw %"class.clang::UnaryOperator", ptr %3, i32 0, i32 1
  %5 = load ptr, ptr %4, align 8
  %6 = call noundef ptr @_ZN4llvm4castIN5clang4ExprENS1_4StmtEEEDcPT0_(ptr noundef %5)
  ret ptr %6
}

; Function Attrs: mustprogress nounwind uwtable
define internal noundef ptr @_ZN12_GLOBAL__N_117ScalarExprEmitter17VisitUnaryPostDecEPKN5clang13UnaryOperatorE(ptr noundef nonnull align 8 dereferenceable(32) %0, ptr noundef %1) #0 align 2 {
  %3 = alloca ptr, align 8
  %4 = alloca ptr, align 8
  %5 = alloca %"class.clang::CodeGen::LValue", align 8
  %6 = alloca %"class.clang::CodeGen::LValue", align 8
  store ptr %0, ptr %3, align 8
  store ptr %1, ptr %4, align 8
  %7 = load ptr, ptr %3, align 8
  %8 = load ptr, ptr %4, align 8
  %9 = call noundef ptr @_ZNK5clang13UnaryOperator10getSubExprEv(ptr noundef nonnull align 8 dereferenceable(24) %8)
  call void @_ZN12_GLOBAL__N_117ScalarExprEmitter10EmitLValueEPKN5clang4ExprE(ptr dead_on_unwind writable sret(%"class.clang::CodeGen::LValue") align 8 %5, ptr noundef nonnull align 8 dereferenceable(32) %7, ptr noundef %9)
  %10 = load ptr, ptr %4, align 8
  call void @llvm.memcpy.p0.p0.i64(ptr align 8 %6, ptr align 8 %5, i64 136, i1 false)
  %11 = call noundef ptr @_ZN12_GLOBAL__N_117ScalarExprEmitter23EmitScalarPrePostIncDecEPKN5clang13UnaryOperatorENS1_7CodeGen6LValueEbb(ptr noundef nonnull align 8 dereferenceable(32) %7, ptr noundef %10, ptr noundef byval(%"class.clang::CodeGen::LValue") align 8 %6, i1 noundef zeroext false, i1 noundef zeroext false)
  ret ptr %11
}